; Function Attrs: mustprogress uwtable
define void @_ZN6casadi8LinsolQr4initERKSt3mapINSt7__cxx1112basic_stringIcSt11char_traitsIcESaIcEEENS_11GenericTypeESt4lessIS7_ESaISt4pairIKS7_S8_EEE(ptr noundef nonnull align 8 dereferenceable(272) %0, ptr noundef nonnull align 8 dereferenceable(48) %1) unnamed_addr #4 align 2 personality ptr @__gxx_personality_v0 {
  tail call void @_ZN6casadi14LinsolInternal4initERKSt3mapINSt7__cxx1112basic_stringIcSt11char_traitsIcESaIcEEENS_11GenericTypeESt4lessIS7_ESaISt4pairIKS7_S8_EEE(ptr noundef nonnull align 8 dereferenceable(184) %0, ptr noundef nonnull align 8 dereferenceable(48) %1)
  %3 = getelementptr inbounds i8, ptr %0, i64 248
  store double 0x3D719799812DEA11, ptr %3, align 8
  %4 = getelementptr inbounds i8, ptr %0, i64 256
  store i64 0, ptr %4, align 8
  %5 = getelementptr inbounds i8, ptr %1, i64 24
  %6 = load ptr, ptr %5, align 8
  %7 = getelementptr inbounds i8, ptr %1, i64 8
  %.not12 = icmp eq ptr %6, %7
  br i1 %.not12, label %._crit_edge, label %.lr.ph

.lr.ph:                                           ; preds = %2, %20
  %.sroa.09.013 = phi ptr [ %21, %20 ], [ %6, %2 ]
  %8 = getelementptr inbounds i8, ptr %.sroa.09.013, i64 32
  %9 = tail call noundef i32 @_ZNKSt7__cxx1112basic_stringIcSt11char_traitsIcESaIcEE7compareEPKc(ptr noundef nonnull align 8 dereferenceable(32) %8, ptr noundef nonnull @.str.2) #21
  %10 = icmp eq i32 %9, 0
  br i1 %10, label %11, label %14

11:                                               ; preds = %.lr.ph
  %12 = getelementptr inbounds i8, ptr %.sroa.09.013, i64 64
  %13 = tail call noundef double @_ZNK6casadi11GenericType9to_doubleEv(ptr noundef nonnull align 8 dereferenceable(8) %12)
  store double %13, ptr %3, align 8
  br label %20

14:                                               ; preds = %.lr.ph
  %15 = tail call noundef i32 @_ZNKSt7__cxx1112basic_stringIcSt11char_traitsIcESaIcEE7compareEPKc(ptr noundef nonnull align 8 dereferenceable(32) %8, ptr noundef nonnull @.str.4) #21
  %16 = icmp eq i32 %15, 0
  br i1 %16, label %17, label %20

17:                                               ; preds = %14
  %18 = getelementptr inbounds i8, ptr %.sroa.09.013, i64 64
  %19 = tail call noundef i64 @_ZNK6casadi11GenericType6to_intEv(ptr noundef nonnull align 8 dereferenceable(8) %18)
  store i64 %19, ptr %4, align 8
  br label %20

20:                                               ; preds = %11, %17, %14
  %21 = tail call noundef ptr @_ZSt18_Rb_tree_incrementPKSt18_Rb_tree_node_base(ptr noundef %.sroa.09.013) #26
  %.not = icmp eq ptr %21, %7
  br i1 %.not, label %._crit_edge, label %.lr.ph

._crit_edge:                                      ; preds = %20, %2
  %22 = getelementptr inbounds i8, ptr %0, i64 176
  %23 = getelementptr inbounds i8, ptr %0, i64 232
  %24 = getelementptr inbounds i8, ptr %0, i64 240
  %25 = getelementptr inbounds i8, ptr %0, i64 184
  %26 = getelementptr inbounds i8, ptr %0, i64 208
  tail call void @_ZNK6casadi8Sparsity9qr_sparseERS0_S1_RSt6vectorIxSaIxEES5_b(ptr noundef nonnull align 8 dereferenceable(8) %22, ptr noundef nonnull align 8 dereferenceable(8) %23, ptr noundef nonnull align 8 dereferenceable(8) %24, ptr noundef nonnull align 8 dereferenceable(24) %25, ptr noundef nonnull align 8 dereferenceable(24) %26, i1 noundef zeroext true)
  ret void
}